; Function Attrs: mustprogress uwtable
define noundef i64 @_ZNK6google8protobuf43FeatureSetDefaults_FeatureSetEditionDefault12ByteSizeLongEv(ptr noundef nonnull align 8 dereferenceable(40) %this) unnamed_addr #3 align 2 personality ptr @__gxx_personality_v0 {
entry:
  %0 = getelementptr inbounds i8, ptr %this, i64 16
  %1 = load i32, ptr %0, align 8
  %and = and i32 %1, 3
  %tobool.not = icmp eq i32 %and, 0
  br i1 %tobool.not, label %if.end15, label %if.then

if.then:                                          ; preds = %entry
  %and2 = and i32 %1, 1
  %tobool3.not = icmp eq i32 %and2, 0
  br i1 %tobool3.not, label %if.end, label %if.then4

if.then4:                                         ; preds = %if.then
  %features_ = getelementptr inbounds i8, ptr %this, i64 24
  %2 = load ptr, ptr %features_, align 8
  %call.i = tail call noundef i64 @_ZNK6google8protobuf10FeatureSet12ByteSizeLongEv(ptr noundef nonnull align 8 dereferenceable(72) %2)
  %conv.i.i = trunc i64 %call.i to i32
  %or.i.i.i = or i32 %conv.i.i, 1
  %3 = tail call noundef i32 @llvm.ctlz.i32(i32 %or.i.i.i, i1 true), !range !7
  %sub.i.i.i = xor i32 %3, 31
  %mul.i.i.i = mul nuw nsw i32 %sub.i.i.i, 9
  %add.i.i.i = add nuw nsw i32 %mul.i.i.i, 73
  %div1.i.i.i = lshr i32 %add.i.i.i, 6
  %conv.i.i.i = zext nneg i32 %div1.i.i.i to i64
  %add.i.i = add i64 %call.i, 1
  %add = add i64 %add.i.i, %conv.i.i.i
  br label %if.end

if.end:                                           ; preds = %if.then4, %if.then
  %total_size.0 = phi i64 [ %add, %if.then4 ], [ 0, %if.then ]
  %and7 = and i32 %1, 2
  %tobool8.not = icmp eq i32 %and7, 0
  br i1 %tobool8.not, label %if.end15, label %if.then9

if.then9:                                         ; preds = %if.end
  %edition_.i = getelementptr inbounds i8, ptr %this, i64 32
  %4 = load i32, ptr %edition_.i, align 8
  %5 = or i32 %4, 1
  %or.i.i.i5 = sext i32 %5 to i64
  %6 = tail call i64 @llvm.ctlz.i64(i64 %or.i.i.i5, i1 true), !range !35
  %sub.i.i.i6 = xor i64 %6, 63
  %mul.i.i.i7 = mul nuw nsw i64 %sub.i.i.i6, 9
  %add.i.i.i8 = add nuw nsw i64 %mul.i.i.i7, 73
  %div1.i.i.i9 = lshr i64 %add.i.i.i8, 6
  %add12 = add i64 %total_size.0, 1
  %add13 = add i64 %add12, %div1.i.i.i9
  br label %if.end15

if.end15:                                         ; preds = %if.end, %if.then9, %entry
  %total_size.1 = phi i64 [ %add13, %if.then9 ], [ %total_size.0, %if.end ], [ 0, %entry ]
  %_cached_size_ = getelementptr inbounds i8, ptr %this, i64 20
  %call16 = tail call noundef i64 @_ZNK6google8protobuf7Message29MaybeComputeUnknownFieldsSizeEmPNS0_8internal10CachedSizeE(ptr noundef nonnull align 8 dereferenceable(16) %this, i64 noundef %total_size.1, ptr noundef nonnull %_cached_size_)
  ret i64 %call16
}